(lp1
(lp2
I4
aI3
aI0
aI0
aa(lp3
I12
aI6
aI0
aI0
aa(lp4
I10
aI4
aI0
aI0
aa(lp5
I25
aI9
aI0
aI0
aa(lp6
I11
aI6
aI0
aI0
aa(lp7
I4
aI3
aI0
aI0
aa(lp8
I25
aI13
aI0
aI0
aa(lp9
I5
aI3
aI0
aI0
aa(lp10
I7
aI3
aI0
aI0
aa(lp11
I14
aI6
aI0
aI0
aa(lp12
I0
aI0
aI0
aI0
aa(lp13
I12
aI10
aI0
aI0
aa(lp14
I115
aI87
aI0
aI0
aa(lp15
I11
aI7
aI0
aI0
aa(lp16
I10
aI7
aI0
aI0
aa(lp17
I9
aI6
aI0
aI0
aa(lp18
I12
aI9
aI0
aI0
aa(lp19
I45
aI12
aI0
aI0
aa(lp20
I5
aI3
aI0
aI0
aa(lp21
I24
aI9
aI0
aI0
aa(lp22
I82
aI54
aI0
aI2
aa(lp23
I8
aI3
aI0
aI0
aa(lp24
I5
aI1
aI0
aI0
aa(lp25
I0
aI0
aI0
aI0
aa(lp26
I18
aI12
aI0
aI0
aa(lp27
I8
aI3
aI0
aI0
aa(lp28
I7
aI3
aI0
aI0
aa(lp29
I0
aI0
aI0
aI0
aa(lp30
I14
aI3
aI0
aI0
aa(lp31
I23
aI13
aI0
aI0
aa(lp32
I23
aI9
aI0
aI0
aa(lp33
I8
aI5
aI0
aI0
aa(lp34
I10
aI6
aI0
aI0
aa(lp35
I0
aI0
aI0
aI0
aa(lp36
I29
aI21
aI0
aI0
aa(lp37
I16
aI12
aI0
aI0
aa(lp38
I23
aI13
aI0
aI0
aa(lp39
I8
aI4
aI0
aI0
aa(lp40
I8
aI3
aI0
aI0
aa(lp41
I9
aI3
aI0
aI0
aa(lp42
I3
aI2
aI0
aI0
aa(lp43
I0
aI0
aI0
aI0
aa(lp44
I6
aI3
aI0
aI0
aa(lp45
I19
aI9
aI0
aI0
aa(lp46
I5
aI3
aI0
aI0
aa(lp47
I9
aI2
aI0
aI0
aa(lp48
I8
aI2
aI0
aI0
aa(lp49
I4
aI3
aI0
aI0
aa(lp50
I15
aI9
aI0
aI0
aa(lp51
I5
aI3
aI0
aI0
aa(lp52
I3
aI2
aI0
aI0
aa(lp53
I9
aI6
aI0
aI0
aa(lp54
I33
aI17
aI0
aI0
aa(lp55
I18
aI9
aI0
aI0
aa(lp56
I12
aI5
aI0
aI0
aa(lp57
I3
aI2
aI0
aI0
aa(lp58
I9
aI5
aI0
aI0
aa(lp59
I7
aI2
aI0
aI0
aa(lp60
I15
aI11
aI0
aI0
aa(lp61
I17
aI7
aI0
aI0
aa(lp62
I17
aI9
aI0
aI0
aa(lp63
I14
aI9
aI0
aI0
aa(lp64
I0
aI0
aI0
aI0
aa(lp65
I141
aI102
aI0
aI0
aa(lp66
I24
aI13
aI0
aI0
aa(lp67
I16
aI5
aI0
aI0
aa(lp68
I7
aI5
aI0
aI0
aa(lp69
I7
aI4
aI0
aI0
aa(lp70
I14
aI5
aI0
aI0
aa(lp71
I10
aI2
aI0
aI0
aa(lp72
I33
aI21
aI0
aI0
aa(lp73
I6
aI4
aI0
aI0
aa(lp74
I7
aI5
aI0
aI0
aa(lp75
I10
aI7
aI0
aI0
aa(lp76
I37
aI23
aI0
aI0
aa(lp77
I0
aI0
aI0
aI0
aa(lp78
I91
aI67
aI0
aI0
aa(lp79
I7
aI5
aI0
aI0
aa(lp80
I11
aI4
aI0
aI0
aa(lp81
I11
aI6
aI0
aI0
aa(lp82
I12
aI8
aI0
aI0
aa(lp83
I7
aI2
aI0
aI0
aa(lp84
I8
aI5
aI0
aI0
aa(lp85
I20
aI9
aI0
aI0
aa(lp86
I12
aI5
aI0
aI0
aa(lp87
I78
aI56
aI0
aI0
aa(lp88
I8
aI4
aI0
aI0
aa(lp89
I5
aI3
aI0
aI0
aa(lp90
I79
aI58
aI0
aI0
aa(lp91
I13
aI5
aI0
aI0
aa(lp92
I10
aI6
aI0
aI0
aa(lp93
I8
aI4
aI0
aI0
aa(lp94
I10
aI2
aI0
aI0
aa(lp95
I4
aI3
aI0
aI0
aa(lp96
I11
aI6
aI0
aI0
aa(lp97
I0
aI0
aI0
aI0
aa(lp98
I11
aI8
aI0
aI0
aa(lp99
I11
aI6
aI0
aI0
aa(lp100
I14
aI7
aI0
aI0
aa(lp101
I9
aI6
aI0
aI0
aa(lp102
I0
aI0
aI0
aI0
aa(lp103
I47
aI34
aI0
aI0
aa(lp104
I0
aI0
aI0
aI0
aa(lp105
I16
aI7
aI0
aI0
aa(lp106
I13
aI8
aI0
aI0
aa(lp107
I6
aI2
aI0
aI0
aa(lp108
I11
aI6
aI0
aI0
aa(lp109
I7
aI5
aI0
aI0
aa(lp110
I178
aI140
aI0
aI0
aa(lp111
I5
aI3
aI0
aI0
aa(lp112
I0
aI0
aI0
aI0
aa(lp113
I10
aI6
aI0
aI0
aa(lp114
I19
aI13
aI0
aI0
aa(lp115
I3
aI2
aI0
aI0
aa(lp116
I10
aI4
aI0
aI0
aa(lp117
I21
aI10
aI0
aI0
aa(lp118
I8
aI5
aI0
aI0
aa(lp119
I15
aI11
aI0
aI0
aa(lp120
I5
aI3
aI0
aI0
aa(lp121
I4
aI3
aI0
aI0
aa(lp122
I0
aI0
aI0
aI0
aa(lp123
I3
aI2
aI0
aI0
aa(lp124
I8
aI6
aI0
aI0
aa(lp125
I8
aI6
aI0
aI0
aa(lp126
I6
aI3
aI0
aI0
aa(lp127
I10
aI8
aI0
aI0
aa(lp128
I23
aI10
aI0
aI0
aa(lp129
I0
aI0
aI0
aI0
aa(lp130
I7
aI3
aI0
aI0
aa(lp131
I0
aI0
aI0
aI0
aa(lp132
I16
aI9
aI0
aI0
aa(lp133
I8
aI6
aI0
aI0
aa.